; Function Attrs: mustprogress uwtable
define dso_local noundef nonnull ptr @_ZN3dap6TypeOfINS_20ExceptionPathSegmentEE4typeEv() local_unnamed_addr #0 align 2 personality ptr @__gxx_personality_v0 {
  %1 = load atomic i8, ptr @_ZGVZN3dap6TypeOfINS_20ExceptionPathSegmentEE4typeEvE8typeinfo acquire, align 8
  %2 = icmp eq i8 %1, 0
  br i1 %2, label %3, label %8, !prof !5

3:                                                ; preds = %0
  %4 = tail call i32 @__cxa_guard_acquire(ptr nonnull @_ZGVZN3dap6TypeOfINS_20ExceptionPathSegmentEE4typeEvE8typeinfo) #16
  %.not = icmp eq i32 %4, 0
  br i1 %.not, label %8, label %5

5:                                                ; preds = %3
  invoke fastcc void @_ZZN3dap6TypeOfINS_20ExceptionPathSegmentEE4typeEvEN2TIC2Ev()
          to label %6 unwind label %9

6:                                                ; preds = %5
  %7 = tail call i32 @__cxa_atexit(ptr nonnull @_ZZN3dap6TypeOfINS_20ExceptionPathSegmentEE4typeEvEN2TID2Ev, ptr nonnull @_ZZN3dap6TypeOfINS_20ExceptionPathSegmentEE4typeEvE8typeinfo, ptr nonnull @__dso_handle) #16
  tail call void @__cxa_guard_release(ptr nonnull @_ZGVZN3dap6TypeOfINS_20ExceptionPathSegmentEE4typeEvE8typeinfo) #16
  br label %8

8:                                                ; preds = %6, %3, %0
  ret ptr @_ZZN3dap6TypeOfINS_20ExceptionPathSegmentEE4typeEvE8typeinfo

9:                                                ; preds = %5
  %10 = landingpad { ptr, i32 }
          cleanup
  tail call void @__cxa_guard_abort(ptr nonnull @_ZGVZN3dap6TypeOfINS_20ExceptionPathSegmentEE4typeEvE8typeinfo) #16
  resume { ptr, i32 } %10
}